Certificate:
    Data:
        Version: 3 (0x2)
        Serial Number: 302 (0x12e)
        Signature Algorithm: sha1WithRSAEncryption
        Issuer: CN=AFIP-Autoridad Certificante Homologacion, C=AR, ST=Capital Federal, L=Ciudad Autonoma de Buenos Aires, O=Administracion Federal de Ingresos Publicos, OU=Subdireccion General de Sistemas y Telecomunicaciones/emailAddress=ac_homo@afip.gov.ar/serialNumber=CUIT 33693450239
        Validity
            Not Before: Aug 12 14:02:40 2008 GMT
            Not After : Aug 12 14:02:40 2009 GMT
        Subject: C=AR, ST=Buenos Aires, O=TYCO, OU=IT, CN=Martin Rodriguez/emailAddress=mmrodriguez@tycoint.com/serialNumber=CUIT 30656631615
        Subject Public Key Info:
            Public Key Algorithm: rsaEncryption
            RSA Public Key: (1024 bit)
                Modulus (1024 bit):
                    00:cd:d6:fa:45:79:26:06:c0:9b:cf:e6:9c:77:f9:
                    1c:1a:7a:90:42:3e:07:d3:9d:92:70:29:3e:df:aa:
                    34:3b:65:2c:c4:95:f6:59:f5:3a:38:6a:34:86:30:
                    71:77:f4:0e:08:f2:3d:14:62:60:50:16:e2:0a:33:
                    f2:17:e2:3e:62:b1:24:b7:66:d1:1e:19:66:a7:60:
                    b9:f6:aa:30:ed:86:52:9d:76:1d:c6:94:28:a9:92:
                    26:55:e9:9e:3c:06:32:59:b2:ee:03:30:66:2b:aa:
                    22:5b:df:d7:b5:58:5d:c0:4f:17:e5:9e:84:42:42:
                    ec:31:fd:35:88:43:12:1f:f3
                Exponent: 65537 (0x10001)
        X509v3 extensions:
            X509v3 Basic Constraints: 
                CA:FALSE
            X509v3 Subject Key Identifier: 
                71:2A:9D:7D:B7:B5:DC:C6:66:28:F3:9C:E5:E5:6C:63:F8:97:2E:C8
            X509v3 Authority Key Identifier: 
                keyid:58:45:6B:C4:97:16:BC:E9:87:D5:55:FC:85:EB:D2:F4:98:BA:B0:C8
                DirName:/CN=AFIP-Autoridad Certificante Homologacion/C=AR/ST=Capital Federal/L=Ciudad Autonoma de Buenos Aires/O=Administracion Federal de Ingresos Publicos/OU=Subdireccion General de Sistemas y Telecomunicaciones/emailAddress=ac_homo@afip.gov.ar
                serial:C9:03:D1:EF:E9:E3:FE:7A

            X509v3 Key Usage: 
                Digital Signature, Non Repudiation, Key Encipherment
            Netscape Comment: 
                Certificado de computador para pruebas de WebServices
            Netscape Cert Type: 
                Object Signing
    Signature Algorithm: sha1WithRSAEncryption
        b8:1b:57:91:0b:a3:65:bb:89:75:4f:f6:b0:1b:3f:ca:c8:98:
        7f:d1:a7:5d:f3:9d:ef:2c:a1:2e:1c:7d:c0:c1:47:93:94:5d:
        76:3c:b4:79:9f:55:d5:27:f1:8c:62:b0:e8:51:cd:59:29:ac:
        60:2d:87:6d:73:e9:40:a1:e5:6f:df:21:83:54:70:d6:45:8e:
        81:b4:37:52:f4:bd:26:ce:7e:8a:2a:d2:56:9d:92:b6:ce:08:
        eb:99:cc:2b:f1:86:db:98:62:1b:24:ff:f1:3c:c9:4b:e0:b3:
        99:8a:ee:5e:a6:66:79:6c:0d:ce:a5:c5:e2:e8:59:d2:e4:42:
        be:d1:15:f6:1b:ba:7a:db:d0:c3:e6:b6:e2:21:3f:da:e5:11:
        83:a4:5a:4a:f6:62:40:73:a2:27:05:61:f3:49:0e:54:c7:ce:
        89:a8:08:8a:2e:59:5d:54:12:81:86:b4:4a:6c:a1:d4:81:28:
        3b:4b:a2:08:aa:b5:4b:ef:2e:d3:62:d2:c3:df:b8:1c:30:c2:
        4e:63:ca:8d:3d:57:fb:2b:f3:ec:21:00:79:fe:79:3d:8d:47:
        e3:66:0c:e9:19:63:2a:ec:c5:2b:c9:28:a4:61:95:2d:c8:3f:
        09:5f:9c:8f:c5:72:21:43:12:8f:a1:e0:b4:70:3c:50:d5:4b:
        b9:f0:cb:be
-----BEGIN CERTIFICATE-----
MIIF3zCCBMegAwIBAgICAS4wDQYJKoZIhvcNAQEFBQAwggE5MTEwLwYDVQQDEyhB
RklQLUF1dG9yaWRhZCBDZXJ0aWZpY2FudGUgSG9tb2xvZ2FjaW9uMQswCQYDVQQG
EwJBUjEYMBYGA1UECBMPQ2FwaXRhbCBGZWRlcmFsMSgwJgYDVQQHEx9DaXVkYWQg
QXV0b25vbWEgZGUgQnVlbm9zIEFpcmVzMTQwMgYDVQQKEytBZG1pbmlzdHJhY2lv
biBGZWRlcmFsIGRlIEluZ3Jlc29zIFB1YmxpY29zMT4wPAYDVQQLEzVTdWJkaXJl
Y2Npb24gR2VuZXJhbCBkZSBTaXN0ZW1hcyB5IFRlbGVjb211bmljYWNpb25lczEi
MCAGCSqGSIb3DQEJARYTYWNfaG9tb0BhZmlwLmdvdi5hcjEZMBcGA1UEBRMQQ1VJ
VCAzMzY5MzQ1MDIzOTAeFw0wODA4MTIxNDAyNDBaFw0wOTA4MTIxNDAyNDBaMIGe
MQswCQYDVQQGEwJBUjEVMBMGA1UECBMMQnVlbm9zIEFpcmVzMQ0wCwYDVQQKEwRU
WUNPMQswCQYDVQQLEwJJVDEZMBcGA1UEAxMQTWFydGluIFJvZHJpZ3VlejEmMCQG
CSqGSIb3DQEJARYXbW1yb2RyaWd1ZXpAdHljb2ludC5jb20xGTAXBgNVBAUTEENV
SVQgMzA2NTY2MzE2MTUwgZ8wDQYJKoZIhvcNAQEBBQADgY0AMIGJAoGBAM3W+kV5
JgbAm8/mnHf5HBp6kEI+B9OdknApPt+qNDtlLMSV9ln1OjhqNIYwcXf0DgjyPRRi
YFAW4goz8hfiPmKxJLdm0R4ZZqdgufaqMO2GUp12HcaUKKmSJlXpnjwGMlmy7gMw
ZiuqIlvf17VYXcBPF+WehEJC7DH9NYhDEh/zAgMBAAGjggILMIICBzAJBgNVHRME
AjAAMB0GA1UdDgQWBBRxKp19t7XcxmYo85zl5Wxj+JcuyDCCAXMGA1UdIwSCAWow
ggFmgBRYRWvElxa86YfVVfyF69L0mLqwyKGCAUGkggE9MIIBOTExMC8GA1UEAxMo
QUZJUC1BdXRvcmlkYWQgQ2VydGlmaWNhbnRlIEhvbW9sb2dhY2lvbjELMAkGA1UE
BhMCQVIxGDAWBgNVBAgTD0NhcGl0YWwgRmVkZXJhbDEoMCYGA1UEBxMfQ2l1ZGFk
IEF1dG9ub21hIGRlIEJ1ZW5vcyBBaXJlczE0MDIGA1UEChMrQWRtaW5pc3RyYWNp
b24gRmVkZXJhbCBkZSBJbmdyZXNvcyBQdWJsaWNvczE+MDwGA1UECxM1U3ViZGly
ZWNjaW9uIEdlbmVyYWwgZGUgU2lzdGVtYXMgeSBUZWxlY29tdW5pY2FjaW9uZXMx
IjAgBgkqhkiG9w0BCQEWE2FjX2hvbW9AYWZpcC5nb3YuYXIxGTAXBgNVBAUTEENV
SVQgMzM2OTM0NTAyMzmCCQDJA9Hv6eP+ejALBgNVHQ8EBAMCBeAwRAYJYIZIAYb4
QgENBDcWNUNlcnRpZmljYWRvIGRlIGNvbXB1dGFkb3IgcGFyYSBwcnVlYmFzIGRl
IFdlYlNlcnZpY2VzMBEGCWCGSAGG+EIBAQQEAwIEEDANBgkqhkiG9w0BAQUFAAOC
AQEAuBtXkQujZbuJdU/2sBs/ysiYf9GnXfOd7yyhLhx9wMFHk5Rddjy0eZ9V1Sfx
jGKw6FHNWSmsYC2HbXPpQKHlb98hg1Rw1kWOgbQ3UvS9Js5+iirSVp2Sts4I65nM
K/GG25hiGyT/8TzJS+CzmYruXqZmeWwNzqXF4uhZ0uRCvtEV9hu6etvQw+a24iE/
2uURg6RaSvZiQHOiJwVh80kOVMfOiagIii5ZXVQSgYa0Smyh1IEoO0uiCKq1S+8u
02LSw9+4HDDCTmPKjT1X+yvz7CEAef55PY1H42YM6RljKuzFK8kopGGVLcg/CV+c
j8VyIUMSj6HgtHA8UNVLufDLvg==
-----END CERTIFICATE-----
